target datalayout = "e-m:e-p270:32:32-p271:32:32-p272:64:64-i64:64-i128:128-f80:128-n8:16:32:64-S128"
target triple = "x86_64-pc-linux-gnu"

@last_resource_number = internal global i32 0, align 4
@.str.12 = private unnamed_addr constant [25 x i8] c"zend_get_resource_handle\00", align 1

; Function Attrs: nounwind uwtable
define dso_local i32 @zend_get_resource_handle(ptr noundef %0) #0 {
  %2 = alloca i32, align 4
  %3 = alloca ptr, align 8
  store ptr %0, ptr %3, align 8, !tbaa !4
  %4 = load i32, ptr @last_resource_number, align 4, !tbaa !34
  %5 = icmp slt i32 %4, 6
  br i1 %5, label %6, label %11

6:                                                ; preds = %1
  %7 = load ptr, ptr %3, align 8, !tbaa !4
  %8 = call i32 @zend_add_system_entropy(ptr noundef %7, ptr noundef @.str.12, ptr noundef @last_resource_number, i64 noundef 4)
  %9 = load i32, ptr @last_resource_number, align 4, !tbaa !34
  %10 = add nsw i32 %9, 1
  store i32 %10, ptr @last_resource_number, align 4, !tbaa !34
  store i32 %9, ptr %2, align 4
  br label %12

11:                                               ; preds = %1
  store i32 -1, ptr %2, align 4
  br label %12

12:                                               ; preds = %11, %6
  %13 = load i32, ptr %2, align 4
  ret i32 %13
}