; Function Attrs: nounwind uwtable
define dso_local i32 @zend_get_resource_handle(ptr noundef %0) local_unnamed_addr #0 {
  %2 = load i32, ptr @last_resource_number, align 4, !tbaa !25
  %3 = icmp slt i32 %2, 6
  br i1 %3, label %4, label %8

4:                                                ; preds = %1
  %5 = tail call i32 @zend_add_system_entropy(ptr noundef %0, ptr noundef nonnull @.str.12, ptr noundef nonnull @last_resource_number, i64 noundef 4) #14
  %6 = load i32, ptr @last_resource_number, align 4, !tbaa !25
  %7 = add nsw i32 %6, 1
  store i32 %7, ptr @last_resource_number, align 4, !tbaa !25
  br label %8

8:                                                ; preds = %1, %4
  %.0 = phi i32 [ %6, %4 ], [ -1, %1 ]
  ret i32 %.0
}